target datalayout = "e-m:e-p270:32:32-p271:32:32-p272:64:64-i64:64-i128:128-f80:128-n8:16:32:64-S128"
target triple = "x86_64-unknown-linux-gnu"

%struct.rewriteConfigState = type { ptr, ptr, i32, ptr, i32, i32 }

@.str.105 = private unnamed_addr constant [2 x i8] c" \00", align 1

; Function Attrs: nounwind uwtable
define dso_local void @rewriteConfigStringOption(ptr noundef %state, ptr noundef %option, ptr noundef %value, ptr noundef %defvalue) #0 {
entry:
  %state.addr = alloca ptr, align 8
  %option.addr = alloca ptr, align 8
  %value.addr = alloca ptr, align 8
  %defvalue.addr = alloca ptr, align 8
  %force = alloca i32, align 4
  %line = alloca ptr, align 8
  store ptr %state, ptr %state.addr, align 8
  store ptr %option, ptr %option.addr, align 8
  store ptr %value, ptr %value.addr, align 8
  store ptr %defvalue, ptr %defvalue.addr, align 8
  store i32 1, ptr %force, align 4
  %0 = load ptr, ptr %value.addr, align 8
  %cmp = icmp eq ptr %0, null
  br i1 %cmp, label %if.then, label %if.end

if.then:                                          ; preds = %entry
  %1 = load ptr, ptr %state.addr, align 8
  %2 = load ptr, ptr %option.addr, align 8
  call void @rewriteConfigMarkAsProcessed(ptr noundef %1, ptr noundef %2)
  br label %return

if.end:                                           ; preds = %entry
  %3 = load ptr, ptr %defvalue.addr, align 8
  %tobool = icmp ne ptr %3, null
  br i1 %tobool, label %land.lhs.true, label %if.end3

land.lhs.true:                                    ; preds = %if.end
  %4 = load ptr, ptr %value.addr, align 8
  %5 = load ptr, ptr %defvalue.addr, align 8
  %call = call i32 @strcmp(ptr noundef %4, ptr noundef %5) #10
  %cmp1 = icmp eq i32 %call, 0
  br i1 %cmp1, label %if.then2, label %if.end3

if.then2:                                         ; preds = %land.lhs.true
  store i32 0, ptr %force, align 4
  br label %if.end3

if.end3:                                          ; preds = %if.then2, %land.lhs.true, %if.end
  %6 = load ptr, ptr %option.addr, align 8
  %call4 = call ptr @sdsnew(ptr noundef %6)
  store ptr %call4, ptr %line, align 8
  %7 = load ptr, ptr %line, align 8
  %call5 = call ptr @sdscatlen(ptr noundef %7, ptr noundef @.str.105, i64 noundef 1)
  store ptr %call5, ptr %line, align 8
  %8 = load ptr, ptr %line, align 8
  %9 = load ptr, ptr %value.addr, align 8
  %10 = load ptr, ptr %value.addr, align 8
  %call6 = call i64 @strlen(ptr noundef %10) #10
  %call7 = call ptr @sdscatrepr(ptr noundef %8, ptr noundef %9, i64 noundef %call6)
  store ptr %call7, ptr %line, align 8
  %11 = load ptr, ptr %state.addr, align 8
  %12 = load ptr, ptr %option.addr, align 8
  %13 = load ptr, ptr %line, align 8
  %14 = load i32, ptr %force, align 4
  %call8 = call i32 @rewriteConfigRewriteLine(ptr noundef %11, ptr noundef %12, ptr noundef %13, i32 noundef %14)
  br label %return

return:                                           ; preds = %if.end3, %if.then
  ret void
}

; Function Attrs: nounwind uwtable
define dso_local void @rewriteConfigMarkAsProcessed(ptr noundef %state, ptr noundef %option) #0 {
entry:
  %state.addr = alloca ptr, align 8
  %option.addr = alloca ptr, align 8
  %opt = alloca ptr, align 8
  store ptr %state, ptr %state.addr, align 8
  store ptr %option, ptr %option.addr, align 8
  %0 = load ptr, ptr %option.addr, align 8
  %call = call ptr @sdsnew(ptr noundef %0)
  store ptr %call, ptr %opt, align 8
  %1 = load ptr, ptr %state.addr, align 8
  %rewritten = getelementptr inbounds %struct.rewriteConfigState, ptr %1, i32 0, i32 1
  %2 = load ptr, ptr %rewritten, align 8
  %3 = load ptr, ptr %opt, align 8
  %call1 = call i32 @dictAdd(ptr noundef %2, ptr noundef %3, ptr noundef null)
  %cmp = icmp ne i32 %call1, 0
  br i1 %cmp, label %if.then, label %if.end

if.then:                                          ; preds = %entry
  %4 = load ptr, ptr %opt, align 8
  call void @sdsfree(ptr noundef %4)
  br label %if.end

if.end:                                           ; preds = %if.then, %entry
  ret void
}

; Function Attrs: nounwind uwtable
define dso_local void @rewriteConfigDirOption(ptr noundef %config, ptr noundef %name, ptr noundef %state) #0 {
entry:
  %config.addr = alloca ptr, align 8
  %name.addr = alloca ptr, align 8
  %state.addr = alloca ptr, align 8
  %cwd = alloca [1024 x i8], align 16
  store ptr %config, ptr %config.addr, align 8
  store ptr %name, ptr %name.addr, align 8
  store ptr %state, ptr %state.addr, align 8
  %arraydecay = getelementptr inbounds [1024 x i8], ptr %cwd, i64 0, i64 0
  %call = call ptr @getcwd(ptr noundef %arraydecay, i64 noundef 1024) #14
  %cmp = icmp eq ptr %call, null
  br i1 %cmp, label %if.then, label %if.end

if.then:                                          ; preds = %entry
  %0 = load ptr, ptr %state.addr, align 8
  %1 = load ptr, ptr %name.addr, align 8
  call void @rewriteConfigMarkAsProcessed(ptr noundef %0, ptr noundef %1)
  br label %return

if.end:                                           ; preds = %entry
  %2 = load ptr, ptr %state.addr, align 8
  %3 = load ptr, ptr %name.addr, align 8
  %arraydecay1 = getelementptr inbounds [1024 x i8], ptr %cwd, i64 0, i64 0
  call void @rewriteConfigStringOption(ptr noundef %2, ptr noundef %3, ptr noundef %arraydecay1, ptr noundef null)
  br label %return

return:                                           ; preds = %if.end, %if.then
  ret void
}