; Function Attrs: nounwind uwtable
define dso_local void @rewriteConfigDirOption(ptr nocapture readnone %config, ptr noundef %name, ptr nocapture noundef %state) #2 {
entry:
  %cwd = alloca [1024 x i8], align 16
  %call = call ptr @getcwd(ptr noundef nonnull %cwd, i64 noundef 1024) #24
  %cmp = icmp eq ptr %call, null
  %call.i = call ptr @sdsnew(ptr noundef %name) #24
  br i1 %cmp, label %if.then, label %if.end

if.then:                                          ; preds = %entry
  %rewritten.i = getelementptr inbounds i8, ptr %state, i64 8
  %0 = load ptr, ptr %rewritten.i, align 8
  %call1.i = call i32 @dictAdd(ptr noundef %0, ptr noundef %call.i, ptr noundef null) #24
  %cmp.not.i = icmp eq i32 %call1.i, 0
  br i1 %cmp.not.i, label %return, label %if.then.i

if.then.i:                                        ; preds = %if.then
  call void @sdsfree(ptr noundef %call.i) #24
  br label %return

if.end:                                           ; preds = %entry
  %call5.i = call ptr @sdscatlen(ptr noundef %call.i, ptr noundef nonnull @.str.105, i64 noundef 1) #24
  %call6.i = call i64 @strlen(ptr noundef nonnull dereferenceable(1) %cwd) #23
  %call7.i = call ptr @sdscatrepr(ptr noundef %call5.i, ptr noundef nonnull %cwd, i64 noundef %call6.i) #24
  %call8.i = call i32 @rewriteConfigRewriteLine(ptr noundef %state, ptr noundef %name, ptr noundef %call7.i, i32 noundef 1), !range !30
  br label %return

return:                                           ; preds = %if.then.i, %if.then, %if.end
  ret void
}